; Function Attrs: mustprogress nounwind uwtable
define range(i32 0, 2) i32 @ShSetFixedAttributeBindings(ptr noundef %0, ptr noundef %1) local_unnamed_addr #3 {
  %3 = icmp eq ptr %0, null
  br i1 %3, label %14, label %4

4:                                                ; preds = %2
  %5 = load ptr, ptr %0, align 8
  %6 = getelementptr inbounds nuw i8, ptr %5, i64 24
  %7 = load ptr, ptr %6, align 8
  %8 = tail call noundef ptr %7(ptr noundef nonnull align 8 dereferenceable(16) %0) #24
  %9 = icmp eq ptr %8, null
  br i1 %9, label %14, label %10

10:                                               ; preds = %4
  %11 = load ptr, ptr %8, align 8
  %12 = getelementptr inbounds nuw i8, ptr %11, i64 72
  %13 = load ptr, ptr %12, align 8
  tail call void %13(ptr noundef nonnull align 8 dereferenceable(72) %8, ptr noundef %1) #24
  br label %14

14:                                               ; preds = %4, %2, %10
  %.0 = phi i32 [ 1, %10 ], [ 0, %2 ], [ 0, %4 ]
  ret i32 %.0
}